target datalayout = "e-m:e-p270:32:32-p271:32:32-p272:64:64-i64:64-i128:128-f80:128-n8:16:32:64-S128"
target triple = "x86_64-unknown-linux-gnu"

%struct.online_data = type { i32, i8 }

; Function Attrs: fn_ret_thunk_extern nounwind null_pointer_is_valid
define internal fastcc void @io_wq_for_each_worker(ptr noundef %0, ptr nocapture noundef readonly %1, ptr noundef %2) unnamed_addr #0 align 16 {
  %4 = getelementptr inbounds i8, ptr %0, i64 208
  %5 = load volatile ptr, ptr %4, align 8
  %6 = icmp eq ptr %5, %4
  br i1 %6, label %59, label %7

7:                                                ; preds = %55, %3
  %8 = phi ptr [ %57, %55 ], [ %5, %3 ]
  %9 = phi i8 [ %56, %55 ], [ 0, %3 ]
  %10 = getelementptr i8, ptr %8, i64 -24
  %11 = load volatile i32, ptr %10, align 4
  %12 = icmp eq i32 %11, 0
  br i1 %12, label %26, label %13

13:                                               ; preds = %22, %7
  %14 = phi i32 [ %23, %22 ], [ %11, %7 ]
  %15 = add i32 %14, 1
  %16 = tail call { i8, i32 } asm sideeffect ".pushsection .smp_locks,\22a\22\0A.balign 4\0A.long 671f - .\0A.popsection\0A671:\0A\09lock; cmpxchgl $3, $1\0A\09/* output condition code z*/\0A", "={@ccz},=*m,={ax},r,*m,2,~{memory},~{dirflag},~{fpsr},~{flags}"(ptr elementtype(i32) %10, i32 %15, ptr elementtype(i32) %10, i32 %14) #17, !srcloc !20
  %17 = extractvalue { i8, i32 } %16, 0
  %18 = icmp ult i8 %17, 2
  tail call void @llvm.assume(i1 %18)
  %19 = icmp ne i8 %17, 0
  br i1 %19, label %22, label %20, !prof !7

20:                                               ; preds = %13
  %21 = extractvalue { i8, i32 } %16, 1
  br label %22

22:                                               ; preds = %20, %13
  %23 = phi i32 [ %14, %13 ], [ %21, %20 ]
  %24 = icmp eq i32 %23, 0
  %25 = select i1 %19, i1 true, i1 %24
  br i1 %25, label %26, label %13, !llvm.loop !21

26:                                               ; preds = %22, %7
  %27 = phi i32 [ %11, %7 ], [ %23, %22 ]
  %28 = add i32 %27, 1
  %29 = or i32 %28, %27
  %30 = icmp sgt i32 %29, -1
  br i1 %30, label %32, label %31, !prof !7

31:                                               ; preds = %26
  tail call void @refcount_warn_saturate(ptr noundef %10, i32 noundef 0) #17
  br label %32

32:                                               ; preds = %31, %26
  %33 = icmp eq i32 %27, 0
  br i1 %33, label %55, label %34

34:                                               ; preds = %32
  %35 = getelementptr i8, ptr %8, i64 16
  %36 = load ptr, ptr %35, align 8
  %37 = icmp eq ptr %36, null
  br i1 %37, label %41, label %38

38:                                               ; preds = %34
  %39 = tail call zeroext i1 %1(ptr noundef %10, ptr noundef %2) #17, !callees !61
  %40 = zext i1 %39 to i8
  br label %41

41:                                               ; preds = %38, %34
  %42 = phi i8 [ %40, %38 ], [ %9, %34 ]
  %43 = tail call i32 asm sideeffect ".pushsection .smp_locks,\22a\22\0A.balign 4\0A.long 671f - .\0A.popsection\0A671:\0A\09lock; xaddl $0, $1\0A", "=r,=*m,0,*m,~{memory},~{cc},~{dirflag},~{fpsr},~{flags}"(ptr elementtype(i32) %10, i32 -1, ptr elementtype(i32) %10) #17, !srcloc !22
  %44 = icmp eq i32 %43, 1
  br i1 %44, label %45, label %46

45:                                               ; preds = %41
  tail call void asm sideeffect "", "~{memory},~{dirflag},~{fpsr},~{flags}"() #17, !srcloc !23
  br label %49

46:                                               ; preds = %41
  %47 = icmp sgt i32 %43, 0
  br i1 %47, label %49, label %48, !prof !7

48:                                               ; preds = %46
  tail call void @refcount_warn_saturate(ptr noundef %10, i32 noundef 3) #17
  br label %49

49:                                               ; preds = %48, %46, %45
  br i1 %44, label %50, label %52

50:                                               ; preds = %49
  %51 = getelementptr i8, ptr %8, i64 56
  tail call void @complete(ptr noundef %51) #17
  br label %52

52:                                               ; preds = %50, %49
  %53 = and i8 %42, 1
  %54 = icmp eq i8 %53, 0
  br i1 %54, label %55, label %59

55:                                               ; preds = %52, %32
  %56 = phi i8 [ %42, %52 ], [ %9, %32 ]
  %57 = load volatile ptr, ptr %8, align 8
  %58 = icmp eq ptr %57, %4
  br i1 %58, label %59, label %7, !llvm.loop !62

59:                                               ; preds = %55, %52, %3
  ret void
}

; Function Attrs: fn_ret_thunk_extern nounwind null_pointer_is_valid
define internal noundef i32 @io_wq_cpu_online(i32 noundef %0, ptr noundef %1) #0 align 16 {
  %3 = alloca %struct.online_data, align 8
  %4 = icmp eq ptr %1, null
  %5 = getelementptr i8, ptr %1, i64 -72
  %6 = select i1 %4, ptr null, ptr %5
  call void @llvm.lifetime.start.p0(i64 8, ptr nonnull %3) #17
  store i64 0, ptr %3, align 8, !annotation !13
  store i32 %0, ptr %3, align 8
  %7 = getelementptr inbounds i8, ptr %3, i64 4
  store i8 1, ptr %7, align 4
  tail call void @__rcu_read_lock() #17
  call fastcc void @io_wq_for_each_worker(ptr noundef %6, ptr noundef nonnull @io_wq_worker_affinity, ptr noundef nonnull %3)
  call void @__rcu_read_unlock() #17
  call void @llvm.lifetime.end.p0(i64 8, ptr nonnull %3) #17
  ret i32 0
}